(lp0
(dp1
S'A'
p2
I5
sS'B'
p3
I5
sS'W'
p4
I5
sS'g'
p5
I5
sS'r'
p6
I5
sS'b'
p7
I5
sa(lp8
ccopy_reg
_reconstructor
p9
(csplendid.classes
LandDeck
p10
c__builtin__
object
p11
Ntp12
Rp13
(dp14
S'tier'
p15
I1
sS'table'
p16
(lp17
sS'deck'
p18
(lp19
g9
(csplendid.classes
Land
p20
g11
Ntp21
Rp22
(dp23
S'pv'
p24
I0
sg15
I1
sS'cost'
p25
g9
(csplendid.classes
Wallet
p26
g11
Ntp27
Rp28
(dp29
S'gems'
p30
ccollections
Counter
p31
((dp32
S'b'
p33
I3
stp34
Rp35
sbsS'owner'
p36
NsS'type'
p37
S'W'
p38
sS'id'
p39
I1
sbag9
(g20
g11
Ntp40
Rp41
(dp42
g24
I0
sg15
I1
sg25
g9
(g26
g11
Ntp43
Rp44
(dp45
g30
g31
((dp46
S'r'
p47
I2
sS'B'
p48
I1
stp49
Rp50
sbsg36
Nsg37
g38
sg39
I2
sbag9
(g20
g11
Ntp51
Rp52
(dp53
g24
I0
sg15
I1
sg25
g9
(g26
g11
Ntp54
Rp55
(dp56
g30
g31
((dp57
g47
I1
sg48
I1
sg33
I1
sS'g'
p58
I1
stp59
Rp60
sbsg36
Nsg37
g38
sg39
I3
sbag9
(g20
g11
Ntp61
Rp62
(dp63
g24
I0
sg15
I1
sg25
g9
(g26
g11
Ntp64
Rp65
(dp66
g30
g31
((dp67
g48
I2
sg33
I2
stp68
Rp69
sbsg36
Nsg37
g38
sg39
I4
sbag9
(g20
g11
Ntp70
Rp71
(dp72
g24
I1
sg15
I1
sg25
g9
(g26
g11
Ntp73
Rp74
(dp75
g30
g31
((dp76
g58
I4
stp77
Rp78
sbsg36
Nsg37
g38
sg39
I5
sbag9
(g20
g11
Ntp79
Rp80
(dp81
g24
I0
sg15
I1
sg25
g9
(g26
g11
Ntp82
Rp83
(dp84
g30
g31
((dp85
g47
I1
sg48
I1
sg33
I1
sg58
I2
stp86
Rp87
sbsg36
Nsg37
g38
sg39
I6
sbag9
(g20
g11
Ntp88
Rp89
(dp90
g24
I0
sg15
I1
sg25
g9
(g26
g11
Ntp91
Rp92
(dp93
g30
g31
((dp94
g48
I1
sg33
I2
sg58
I2
stp95
Rp96
sbsg36
Nsg37
g38
sg39
I7
sbag9
(g20
g11
Ntp97
Rp98
(dp99
g24
I0
sg15
I1
sg25
g9
(g26
g11
Ntp100
Rp101
(dp102
g30
g31
((dp103
g48
I1
sg33
I1
sg38
I3
stp104
Rp105
sbsg36
Nsg37
g38
sg39
I8
sbag9
(g20
g11
Ntp106
Rp107
(dp108
g24
I0
sg15
I1
sg25
g9
(g26
g11
Ntp109
Rp110
(dp111
g30
g31
((dp112
g48
I2
sg38
I1
stp113
Rp114
sbsg36
Nsg37
g33
sg39
I9
sbag9
(g20
g11
Ntp115
Rp116
(dp117
g24
I0
sg15
I1
sg25
g9
(g26
g11
Ntp118
Rp119
(dp120
g30
g31
((dp121
g48
I3
stp122
Rp123
sbsg36
Nsg37
g33
sg39
I10
sbag9
(g20
g11
Ntp124
Rp125
(dp126
g24
I0
sg15
I1
sg25
g9
(g26
g11
Ntp127
Rp128
(dp129
g30
g31
((dp130
g47
I1
sg48
I1
sg38
I1
sg58
I1
stp131
Rp132
sbsg36
Nsg37
g33
sg39
I11
sbag9
(g20
g11
Ntp133
Rp134
(dp135
g24
I0
sg15
I1
sg25
g9
(g26
g11
Ntp136
Rp137
(dp138
g30
g31
((dp139
g48
I2
sg58
I2
stp140
Rp141
sbsg36
Nsg37
g33
sg39
I12
sbag9
(g20
g11
Ntp142
Rp143
(dp144
g24
I1
sg15
I1
sg25
g9
(g26
g11
Ntp145
Rp146
(dp147
g30
g31
((dp148
g47
I4
stp149
Rp150
sbsg36
Nsg37
g33
sg39
I13
sbag9
(g20
g11
Ntp151
Rp152
(dp153
g24
I0
sg15
I1
sg25
g9
(g26
g11
Ntp154
Rp155
(dp156
g30
g31
((dp157
g47
I2
sg48
I1
sg38
I1
sg58
I1
stp158
Rp159
sbsg36
Nsg37
g33
sg39
I14
sbag9
(g20
g11
Ntp160
Rp161
(dp162
g24
I0
sg15
I1
sg25
g9
(g26
g11
Ntp163
Rp164
(dp165
g30
g31
((dp166
g47
I2
sg38
I1
sg58
I2
stp167
Rp168
sbsg36
Nsg37
g33
sg39
I15
sbag9
(g20
g11
Ntp169
Rp170
(dp171
g24
I0
sg15
I1
sg25
g9
(g26
g11
Ntp172
Rp173
(dp174
g30
g31
((dp175
g47
I1
sg33
I1
sg58
I3
stp176
Rp177
sbsg36
Nsg37
g33
sg39
I16
sbag9
(g20
g11
Ntp178
Rp179
(dp180
g24
I0
sg15
I1
sg25
g9
(g26
g11
Ntp181
Rp182
(dp183
g30
g31
((dp184
g33
I1
sg38
I2
stp185
Rp186
sbsg36
Nsg37
g58
sg39
I17
sbag9
(g20
g11
Ntp187
Rp188
(dp189
g24
I0
sg15
I1
sg25
g9
(g26
g11
Ntp190
Rp191
(dp192
g30
g31
((dp193
g47
I3
stp194
Rp195
sbsg36
Nsg37
g58
sg39
I18
sbag9
(g20
g11
Ntp196
Rp197
(dp198
g24
I0
sg15
I1
sg25
g9
(g26
g11
Ntp199
Rp200
(dp201
g30
g31
((dp202
g47
I1
sg48
I1
sg33
I1
sg38
I1
stp203
Rp204
sbsg36
Nsg37
g58
sg39
I19
sbag9
(g20
g11
Ntp205
Rp206
(dp207
g24
I0
sg15
I1
sg25
g9
(g26
g11
Ntp208
Rp209
(dp210
g30
g31
((dp211
g47
I2
sg33
I2
stp212
Rp213
sbsg36
Nsg37
g58
sg39
I20
sbag9
(g20
g11
Ntp214
Rp215
(dp216
g24
I1
sg15
I1
sg25
g9
(g26
g11
Ntp217
Rp218
(dp219
g30
g31
((dp220
g48
I4
stp221
Rp222
sbsg36
Nsg37
g58
sg39
I21
sbag9
(g20
g11
Ntp223
Rp224
(dp225
g24
I0
sg15
I1
sg25
g9
(g26
g11
Ntp226
Rp227
(dp228
g30
g31
((dp229
g47
I1
sg48
I2
sg33
I1
sg38
I1
stp230
Rp231
sbsg36
Nsg37
g58
sg39
I22
sbag9
(g20
g11
Ntp232
Rp233
(dp234
g24
I0
sg15
I1
sg25
g9
(g26
g11
Ntp235
Rp236
(dp237
g30
g31
((dp238
g47
I2
sg48
I2
sg33
I1
stp239
Rp240
sbsg36
Nsg37
g58
sg39
I23
sbag9
(g20
g11
Ntp241
Rp242
(dp243
g24
I0
sg15
I1
sg25
g9
(g26
g11
Ntp244
Rp245
(dp246
g30
g31
((dp247
g33
I3
sg38
I1
sg58
I1
stp248
Rp249
sbsg36
Nsg37
g58
sg39
I24
sbag9
(g20
g11
Ntp250
Rp251
(dp252
g24
I0
sg15
I1
sg25
g9
(g26
g11
Ntp253
Rp254
(dp255
g30
g31
((dp256
g33
I2
sg58
I1
stp257
Rp258
sbsg36
Nsg37
g47
sg39
I25
sbag9
(g20
g11
Ntp259
Rp260
(dp261
g24
I0
sg15
I1
sg25
g9
(g26
g11
Ntp262
Rp263
(dp264
g30
g31
((dp265
g38
I3
stp266
Rp267
sbsg36
Nsg37
g47
sg39
I26
sbag9
(g20
g11
Ntp268
Rp269
(dp270
g24
I0
sg15
I1
sg25
g9
(g26
g11
Ntp271
Rp272
(dp273
g30
g31
((dp274
g48
I1
sg33
I1
sg38
I1
sg58
I1
stp275
Rp276
sbsg36
Nsg37
g47
sg39
I27
sbag9
(g20
g11
Ntp277
Rp278
(dp279
g24
I0
sg15
I1
sg25
g9
(g26
g11
Ntp280
Rp281
(dp282
g30
g31
((dp283
g47
I2
sg38
I2
stp284
Rp285
sbsg36
Nsg37
g47
sg39
I28
sbag9
(g20
g11
Ntp286
Rp287
(dp288
g24
I1
sg15
I1
sg25
g9
(g26
g11
Ntp289
Rp290
(dp291
g30
g31
((dp292
g38
I4
stp293
Rp294
sbsg36
Nsg37
g47
sg39
I29
sbag9
(g20
g11
Ntp295
Rp296
(dp297
g24
I0
sg15
I1
sg25
g9
(g26
g11
Ntp298
Rp299
(dp300
g30
g31
((dp301
g48
I1
sg33
I1
sg38
I2
sg58
I1
stp302
Rp303
sbsg36
Nsg37
g47
sg39
I30
sbag9
(g20
g11
Ntp304
Rp305
(dp306
g24
I0
sg15
I1
sg25
g9
(g26
g11
Ntp307
Rp308
(dp309
g30
g31
((dp310
g48
I2
sg38
I2
sg58
I1
stp311
Rp312
sbsg36
Nsg37
g47
sg39
I31
sbag9
(g20
g11
Ntp313
Rp314
(dp315
g24
I0
sg15
I1
sg25
g9
(g26
g11
Ntp316
Rp317
(dp318
g30
g31
((dp319
g47
I1
sg48
I3
sg38
I1
stp320
Rp321
sbsg36
Nsg37
g47
sg39
I32
sbag9
(g20
g11
Ntp322
Rp323
(dp324
g24
I0
sg15
I1
sg25
g9
(g26
g11
Ntp325
Rp326
(dp327
g30
g31
((dp328
g47
I1
sg58
I2
stp329
Rp330
sbsg36
Nsg37
g48
sg39
I33
sbag9
(g20
g11
Ntp331
Rp332
(dp333
g24
I0
sg15
I1
sg25
g9
(g26
g11
Ntp334
Rp335
(dp336
g30
g31
((dp337
g58
I3
stp338
Rp339
sbsg36
Nsg37
g48
sg39
I34
sbag9
(g20
g11
Ntp340
Rp341
(dp342
g24
I0
sg15
I1
sg25
g9
(g26
g11
Ntp343
Rp344
(dp345
g30
g31
((dp346
g47
I1
sg33
I1
sg38
I1
sg58
I1
stp347
Rp348
sbsg36
Nsg37
g48
sg39
I35
sbag9
(g20
g11
Ntp349
Rp350
(dp351
g24
I0
sg15
I1
sg25
g9
(g26
g11
Ntp352
Rp353
(dp354
g30
g31
((dp355
g38
I2
sg58
I2
stp356
Rp357
sbsg36
Nsg37
g48
sg39
I36
sbag9
(g20
g11
Ntp358
Rp359
(dp360
g24
I1
sg15
I1
sg25
g9
(g26
g11
Ntp361
Rp362
(dp363
g30
g31
((dp364
g33
I4
stp365
Rp366
sbsg36
Nsg37
g48
sg39
I37
sbag9
(g20
g11
Ntp367
Rp368
(dp369
g24
I0
sg15
I1
sg25
g9
(g26
g11
Ntp370
Rp371
(dp372
g30
g31
((dp373
g47
I1
sg33
I2
sg38
I1
sg58
I1
stp374
Rp375
sbsg36
Nsg37
g48
sg39
I38
sbag9
(g20
g11
Ntp376
Rp377
(dp378
g24
I0
sg15
I1
sg25
g9
(g26
g11
Ntp379
Rp380
(dp381
g30
g31
((dp382
g47
I1
sg33
I2
sg38
I2
stp383
Rp384
sbsg36
Nsg37
g48
sg39
I39
sbag9
(g20
g11
Ntp385
Rp386
(dp387
g24
I0
sg15
I1
sg25
g9
(g26
g11
Ntp388
Rp389
(dp390
g30
g31
((dp391
g47
I3
sg48
I1
sg58
I1
stp392
Rp393
sbsg36
Nsg37
g48
sg39
I40
sbasS'_max_on_table'
p394
I4
sS'elsewhere'
p395
(lp396
sbag9
(g10
g11
Ntp397
Rp398
(dp399
g15
I2
sg16
(lp400
sg18
(lp401
g9
(g20
g11
Ntp402
Rp403
(dp404
g24
I2
sg15
I2
sg25
g9
(g26
g11
Ntp405
Rp406
(dp407
g30
g31
((dp408
g47
I5
stp409
Rp410
sbsg36
Nsg37
g38
sg39
I41
sbag9
(g20
g11
Ntp411
Rp412
(dp413
g24
I3
sg15
I2
sg25
g9
(g26
g11
Ntp414
Rp415
(dp416
g30
g31
((dp417
g38
I6
stp418
Rp419
sbsg36
Nsg37
g38
sg39
I42
sbag9
(g20
g11
Ntp420
Rp421
(dp422
g24
I1
sg15
I2
sg25
g9
(g26
g11
Ntp423
Rp424
(dp425
g30
g31
((dp426
g47
I2
sg48
I2
sg58
I3
stp427
Rp428
sbsg36
Nsg37
g38
sg39
I43
sbag9
(g20
g11
Ntp429
Rp430
(dp431
g24
I2
sg15
I2
sg25
g9
(g26
g11
Ntp432
Rp433
(dp434
g30
g31
((dp435
g47
I4
sg48
I2
sg58
I1
stp436
Rp437
sbsg36
Nsg37
g38
sg39
I44
sbag9
(g20
g11
Ntp438
Rp439
(dp440
g24
I1
sg15
I2
sg25
g9
(g26
g11
Ntp441
Rp442
(dp443
g30
g31
((dp444
g47
I3
sg33
I3
sg38
I2
stp445
Rp446
sbsg36
Nsg37
g38
sg39
I45
sbag9
(g20
g11
Ntp447
Rp448
(dp449
g24
I2
sg15
I2
sg25
g9
(g26
g11
Ntp450
Rp451
(dp452
g30
g31
((dp453
g47
I5
sg48
I3
stp454
Rp455
sbsg36
Nsg37
g38
sg39
I46
sbag9
(g20
g11
Ntp456
Rp457
(dp458
g24
I2
sg15
I2
sg25
g9
(g26
g11
Ntp459
Rp460
(dp461
g30
g31
((dp462
g33
I5
stp463
Rp464
sbsg36
Nsg37
g33
sg39
I47
sbag9
(g20
g11
Ntp465
Rp466
(dp467
g24
I3
sg15
I2
sg25
g9
(g26
g11
Ntp468
Rp469
(dp470
g30
g31
((dp471
g33
I6
stp472
Rp473
sbsg36
Nsg37
g33
sg39
I48
sbag9
(g20
g11
Ntp474
Rp475
(dp476
g24
I1
sg15
I2
sg25
g9
(g26
g11
Ntp477
Rp478
(dp479
g30
g31
((dp480
g47
I3
sg33
I2
sg58
I2
stp481
Rp482
sbsg36
Nsg37
g33
sg39
I49
sbag9
(g20
g11
Ntp483
Rp484
(dp485
g24
I2
sg15
I2
sg25
g9
(g26
g11
Ntp486
Rp487
(dp488
g30
g31
((dp489
g47
I1
sg48
I4
sg38
I2
stp490
Rp491
sbsg36
Nsg37
g33
sg39
I50
sbag9
(g20
g11
Ntp492
Rp493
(dp494
g24
I1
sg15
I2
sg25
g9
(g26
g11
Ntp495
Rp496
(dp497
g30
g31
((dp498
g48
I3
sg33
I2
sg58
I3
stp499
Rp500
sbsg36
Nsg37
g33
sg39
I51
sbag9
(g20
g11
Ntp501
Rp502
(dp503
g24
I2
sg15
I2
sg25
g9
(g26
g11
Ntp504
Rp505
(dp506
g30
g31
((dp507
g33
I3
sg38
I5
stp508
Rp509
sbsg36
Nsg37
g33
sg39
I52
sbag9
(g20
g11
Ntp510
Rp511
(dp512
g24
I2
sg15
I2
sg25
g9
(g26
g11
Ntp513
Rp514
(dp515
g30
g31
((dp516
g58
I5
stp517
Rp518
sbsg36
Nsg37
g58
sg39
I53
sbag9
(g20
g11
Ntp519
Rp520
(dp521
g24
I3
sg15
I2
sg25
g9
(g26
g11
Ntp522
Rp523
(dp524
g30
g31
((dp525
g58
I6
stp526
Rp527
sbsg36
Nsg37
g58
sg39
I54
sbag9
(g20
g11
Ntp528
Rp529
(dp530
g24
I1
sg15
I2
sg25
g9
(g26
g11
Ntp531
Rp532
(dp533
g30
g31
((dp534
g48
I2
sg33
I3
sg38
I2
stp535
Rp536
sbsg36
Nsg37
g58
sg39
I55
sbag9
(g20
g11
Ntp537
Rp538
(dp539
g24
I1
sg15
I2
sg25
g9
(g26
g11
Ntp540
Rp541
(dp542
g30
g31
((dp543
g47
I3
sg38
I3
sg58
I2
stp544
Rp545
sbsg36
Nsg37
g58
sg39
I56
sbag9
(g20
g11
Ntp546
Rp547
(dp548
g24
I2
sg15
I2
sg25
g9
(g26
g11
Ntp549
Rp550
(dp551
g30
g31
((dp552
g48
I1
sg33
I2
sg38
I4
stp553
Rp554
sbsg36
Nsg37
g58
sg39
I57
sbag9
(g20
g11
Ntp555
Rp556
(dp557
g24
I2
sg15
I2
sg25
g9
(g26
g11
Ntp558
Rp559
(dp560
g30
g31
((dp561
g33
I5
sg58
I3
stp562
Rp563
sbsg36
Nsg37
g58
sg39
I58
sbag9
(g20
g11
Ntp564
Rp565
(dp566
g24
I2
sg15
I2
sg25
g9
(g26
g11
Ntp567
Rp568
(dp569
g30
g31
((dp570
g48
I5
stp571
Rp572
sbsg36
Nsg37
g47
sg39
I59
sbag9
(g20
g11
Ntp573
Rp574
(dp575
g24
I3
sg15
I2
sg25
g9
(g26
g11
Ntp576
Rp577
(dp578
g30
g31
((dp579
g47
I6
stp580
Rp581
sbsg36
Nsg37
g47
sg39
I60
sbag9
(g20
g11
Ntp582
Rp583
(dp584
g24
I1
sg15
I2
sg25
g9
(g26
g11
Ntp585
Rp586
(dp587
g30
g31
((dp588
g47
I2
sg48
I3
sg38
I2
stp589
Rp590
sbsg36
Nsg37
g47
sg39
I61
sbag9
(g20
g11
Ntp591
Rp592
(dp593
g24
I2
sg15
I2
sg25
g9
(g26
g11
Ntp594
Rp595
(dp596
g30
g31
((dp597
g33
I4
sg38
I1
sg58
I2
stp598
Rp599
sbsg36
Nsg37
g47
sg39
I62
sbag9
(g20
g11
Ntp600
Rp601
(dp602
g24
I1
sg15
I2
sg25
g9
(g26
g11
Ntp603
Rp604
(dp605
g30
g31
((dp606
g47
I2
sg48
I3
sg33
I3
stp607
Rp608
sbsg36
Nsg37
g47
sg39
I63
sbag9
(g20
g11
Ntp609
Rp610
(dp611
g24
I2
sg15
I2
sg25
g9
(g26
g11
Ntp612
Rp613
(dp614
g30
g31
((dp615
g48
I5
sg38
I3
stp616
Rp617
sbsg36
Nsg37
g47
sg39
I64
sbag9
(g20
g11
Ntp618
Rp619
(dp620
g24
I2
sg15
I2
sg25
g9
(g26
g11
Ntp621
Rp622
(dp623
g30
g31
((dp624
g38
I5
stp625
Rp626
sbsg36
Nsg37
g48
sg39
I65
sbag9
(g20
g11
Ntp627
Rp628
(dp629
g24
I3
sg15
I2
sg25
g9
(g26
g11
Ntp630
Rp631
(dp632
g30
g31
((dp633
g48
I6
stp634
Rp635
sbsg36
Nsg37
g48
sg39
I66
sbag9
(g20
g11
Ntp636
Rp637
(dp638
g24
I1
sg15
I2
sg25
g9
(g26
g11
Ntp639
Rp640
(dp641
g30
g31
((dp642
g33
I2
sg38
I3
sg58
I2
stp643
Rp644
sbsg36
Nsg37
g48
sg39
I67
sbag9
(g20
g11
Ntp645
Rp646
(dp647
g24
I2
sg15
I2
sg25
g9
(g26
g11
Ntp648
Rp649
(dp650
g30
g31
((dp651
g47
I2
sg33
I1
sg58
I4
stp652
Rp653
sbsg36
Nsg37
g48
sg39
I68
sbag9
(g20
g11
Ntp654
Rp655
(dp656
g24
I1
sg15
I2
sg25
g9
(g26
g11
Ntp657
Rp658
(dp659
g30
g31
((dp660
g48
I2
sg38
I3
sg58
I3
stp661
Rp662
sbsg36
Nsg37
g48
sg39
I69
sbag9
(g20
g11
Ntp663
Rp664
(dp665
g24
I2
sg15
I2
sg25
g9
(g26
g11
Ntp666
Rp667
(dp668
g30
g31
((dp669
g47
I3
sg58
I5
stp670
Rp671
sbsg36
Nsg37
g48
sg39
I70
sbasg394
I4
sg395
(lp672
sbag9
(g10
g11
Ntp673
Rp674
(dp675
g15
I3
sg16
(lp676
sg18
(lp677
g9
(g20
g11
Ntp678
Rp679
(dp680
g24
I4
sg15
I3
sg25
g9
(g26
g11
Ntp681
Rp682
(dp683
g30
g31
((dp684
g48
I7
stp685
Rp686
sbsg36
Nsg37
g38
sg39
I71
sbag9
(g20
g11
Ntp687
Rp688
(dp689
g24
I5
sg15
I3
sg25
g9
(g26
g11
Ntp690
Rp691
(dp692
g30
g31
((dp693
g48
I7
sg38
I3
stp694
Rp695
sbsg36
Nsg37
g38
sg39
I72
sbag9
(g20
g11
Ntp696
Rp697
(dp698
g24
I4
sg15
I3
sg25
g9
(g26
g11
Ntp699
Rp700
(dp701
g30
g31
((dp702
g47
I3
sg48
I6
sg38
I3
stp703
Rp704
sbsg36
Nsg37
g38
sg39
I73
sbag9
(g20
g11
Ntp705
Rp706
(dp707
g24
I3
sg15
I3
sg25
g9
(g26
g11
Ntp708
Rp709
(dp710
g30
g31
((dp711
g47
I5
sg48
I3
sg33
I3
sg58
I3
stp712
Rp713
sbsg36
Nsg37
g38
sg39
I74
sbag9
(g20
g11
Ntp714
Rp715
(dp716
g24
I4
sg15
I3
sg25
g9
(g26
g11
Ntp717
Rp718
(dp719
g30
g31
((dp720
g38
I7
stp721
Rp722
sbsg36
Nsg37
g33
sg39
I75
sbag9
(g20
g11
Ntp723
Rp724
(dp725
g24
I5
sg15
I3
sg25
g9
(g26
g11
Ntp726
Rp727
(dp728
g30
g31
((dp729
g33
I3
sg38
I7
stp730
Rp731
sbsg36
Nsg37
g33
sg39
I76
sbag9
(g20
g11
Ntp732
Rp733
(dp734
g24
I4
sg15
I3
sg25
g9
(g26
g11
Ntp735
Rp736
(dp737
g30
g31
((dp738
g48
I3
sg33
I3
sg38
I6
stp739
Rp740
sbsg36
Nsg37
g33
sg39
I77
sbag9
(g20
g11
Ntp741
Rp742
(dp743
g24
I3
sg15
I3
sg25
g9
(g26
g11
Ntp744
Rp745
(dp746
g30
g31
((dp747
g47
I3
sg48
I5
sg38
I3
sg58
I3
stp748
Rp749
sbsg36
Nsg37
g33
sg39
I78
sbag9
(g20
g11
Ntp750
Rp751
(dp752
g24
I4
sg15
I3
sg25
g9
(g26
g11
Ntp753
Rp754
(dp755
g30
g31
((dp756
g33
I7
stp757
Rp758
sbsg36
Nsg37
g58
sg39
I79
sbag9
(g20
g11
Ntp759
Rp760
(dp761
g24
I5
sg15
I3
sg25
g9
(g26
g11
Ntp762
Rp763
(dp764
g30
g31
((dp765
g33
I7
sg58
I3
stp766
Rp767
sbsg36
Nsg37
g58
sg39
I80
sbag9
(g20
g11
Ntp768
Rp769
(dp770
g24
I4
sg15
I3
sg25
g9
(g26
g11
Ntp771
Rp772
(dp773
g30
g31
((dp774
g33
I6
sg38
I3
sg58
I3
stp775
Rp776
sbsg36
Nsg37
g58
sg39
I81
sbag9
(g20
g11
Ntp777
Rp778
(dp779
g24
I3
sg15
I3
sg25
g9
(g26
g11
Ntp780
Rp781
(dp782
g30
g31
((dp783
g47
I3
sg48
I3
sg33
I3
sg38
I5
stp784
Rp785
sbsg36
Nsg37
g58
sg39
I82
sbag9
(g20
g11
Ntp786
Rp787
(dp788
g24
I4
sg15
I3
sg25
g9
(g26
g11
Ntp789
Rp790
(dp791
g30
g31
((dp792
g58
I7
stp793
Rp794
sbsg36
Nsg37
g47
sg39
I83
sbag9
(g20
g11
Ntp795
Rp796
(dp797
g24
I5
sg15
I3
sg25
g9
(g26
g11
Ntp798
Rp799
(dp800
g30
g31
((dp801
g47
I3
sg58
I7
stp802
Rp803
sbsg36
Nsg37
g47
sg39
I84
sbag9
(g20
g11
Ntp804
Rp805
(dp806
g24
I4
sg15
I3
sg25
g9
(g26
g11
Ntp807
Rp808
(dp809
g30
g31
((dp810
g47
I3
sg33
I3
sg58
I6
stp811
Rp812
sbsg36
Nsg37
g47
sg39
I85
sbag9
(g20
g11
Ntp813
Rp814
(dp815
g24
I3
sg15
I3
sg25
g9
(g26
g11
Ntp816
Rp817
(dp818
g30
g31
((dp819
g48
I3
sg33
I5
sg38
I3
sg58
I3
stp820
Rp821
sbsg36
Nsg37
g47
sg39
I86
sbag9
(g20
g11
Ntp822
Rp823
(dp824
g24
I4
sg15
I3
sg25
g9
(g26
g11
Ntp825
Rp826
(dp827
g30
g31
((dp828
g47
I7
stp829
Rp830
sbsg36
Nsg37
g48
sg39
I87
sbag9
(g20
g11
Ntp831
Rp832
(dp833
g24
I5
sg15
I3
sg25
g9
(g26
g11
Ntp834
Rp835
(dp836
g30
g31
((dp837
g47
I7
sg48
I3
stp838
Rp839
sbsg36
Nsg37
g48
sg39
I88
sbag9
(g20
g11
Ntp840
Rp841
(dp842
g24
I4
sg15
I3
sg25
g9
(g26
g11
Ntp843
Rp844
(dp845
g30
g31
((dp846
g47
I6
sg48
I3
sg58
I3
stp847
Rp848
sbsg36
Nsg37
g48
sg39
I89
sbag9
(g20
g11
Ntp849
Rp850
(dp851
g24
I3
sg15
I3
sg25
g9
(g26
g11
Ntp852
Rp853
(dp854
g30
g31
((dp855
g47
I3
sg33
I3
sg38
I3
sg58
I5
stp856
Rp857
sbsg36
Nsg37
g48
sg39
I90
sbasg394
I4
sg395
(lp858
sbaag9
(g10
g11
Ntp859
Rp860
(dp861
g15
I1
sg16
(lp862
sg18
(lp863
g9
(g20
g11
Ntp864
Rp865
(dp866
g24
I3
sg15
I1
sg25
g9
(g26
g11
Ntp867
Rp868
(dp869
g30
g31
((dp870
g48
I3
sg33
I3
sg38
I3
stp871
Rp872
sbsg36
Nsg37
S''
p873
sg39
I1
sbag9
(g20
g11
Ntp874
Rp875
(dp876
g24
I3
sg15
I1
sg25
g9
(g26
g11
Ntp877
Rp878
(dp879
g30
g31
((dp880
g47
I3
sg33
I3
sg58
I3
stp881
Rp882
sbsg36
Nsg37
g873
sg39
I2
sbag9
(g20
g11
Ntp883
Rp884
(dp885
g24
I3
sg15
I1
sg25
g9
(g26
g11
Ntp886
Rp887
(dp888
g30
g31
((dp889
g47
I3
sg48
I3
sg38
I3
stp890
Rp891
sbsg36
Nsg37
g873
sg39
I3
sbag9
(g20
g11
Ntp892
Rp893
(dp894
g24
I3
sg15
I1
sg25
g9
(g26
g11
Ntp895
Rp896
(dp897
g30
g31
((dp898
g47
I4
sg58
I4
stp899
Rp900
sbsg36
Nsg37
g873
sg39
I4
sbag9
(g20
g11
Ntp901
Rp902
(dp903
g24
I3
sg15
I1
sg25
g9
(g26
g11
Ntp904
Rp905
(dp906
g30
g31
((dp907
g33
I4
sg58
I4
stp908
Rp909
sbsg36
Nsg37
g873
sg39
I5
sbag9
(g20
g11
Ntp910
Rp911
(dp912
g24
I3
sg15
I1
sg25
g9
(g26
g11
Ntp913
Rp914
(dp915
g30
g31
((dp916
g47
I4
sg48
I4
stp917
Rp918
sbsg36
Nsg37
g873
sg39
I6
sbag9
(g20
g11
Ntp919
Rp920
(dp921
g24
I3
sg15
I1
sg25
g9
(g26
g11
Ntp922
Rp923
(dp924
g30
g31
((dp925
g48
I4
sg38
I4
stp926
Rp927
sbsg36
Nsg37
g873
sg39
I7
sbag9
(g20
g11
Ntp928
Rp929
(dp930
g24
I3
sg15
I1
sg25
g9
(g26
g11
Ntp931
Rp932
(dp933
g30
g31
((dp934
g33
I3
sg38
I3
sg58
I3
stp935
Rp936
sbsg36
Nsg37
g873
sg39
I8
sbag9
(g20
g11
Ntp937
Rp938
(dp939
g24
I3
sg15
I1
sg25
g9
(g26
g11
Ntp940
Rp941
(dp942
g30
g31
((dp943
g47
I3
sg48
I3
sg58
I3
stp944
Rp945
sbsg36
Nsg37
g873
sg39
I9
sbag9
(g20
g11
Ntp946
Rp947
(dp948
g24
I3
sg15
I1
sg25
g9
(g26
g11
Ntp949
Rp950
(dp951
g30
g31
((dp952
g33
I4
sg38
I4
stp953
Rp954
sbsg36
Nsg37
g873
sg39
I10
sbasg394
I4
sg395
(lp955
sba(dp956
S'Bank'
p957
(dp958
S'check_neg'
p959
I01
sS'check_draw'
p960
I01
sS'check_can_draw2'
p961
I01
ssa.