(isplendid.classes
Game
p0
(dp1
S'_stages'
p2
((lp3
S'do_draw'
p4
aS'do_reserve'
p5
aS'do_buy'
p6
a(lp7
S'do_noble'
p8
atp9
sS'_hist'
p10
(dp11
sS'point_goal'
p12
I15
sS'turn'
p13
I0
sS'nobles'
p14
(isplendid.classes
LandDeck
p15
(dp16
S'tier'
p17
I1
sS'table'
p18
(lp19
sS'deck'
p20
(lp21
(isplendid.classes
Land
p22
(dp23
S'pv'
p24
I3
sg17
I1
sS'cost'
p25
(isplendid.classes
Wallet
p26
(dp27
S'gems'
p28
ccollections
Counter
p29
((dp30
S'B'
p31
I3
sS'b'
p32
I3
sS'W'
p33
I3
stp34
Rp35
sbsS'owner'
p36
NsS'type'
p37
S''
p38
sS'id'
p39
I1
sba(isplendid.classes
Land
p40
(dp41
g24
I3
sg17
I1
sg25
(isplendid.classes
Wallet
p42
(dp43
g28
g29
((dp44
S'r'
p45
I3
sg32
I3
sS'g'
p46
I3
stp47
Rp48
sbsg36
Nsg37
g38
sg39
I2
sba(isplendid.classes
Land
p49
(dp50
g24
I3
sg17
I1
sg25
(isplendid.classes
Wallet
p51
(dp52
g28
g29
((dp53
g45
I3
sg31
I3
sg33
I3
stp54
Rp55
sbsg36
Nsg37
g38
sg39
I3
sba(isplendid.classes
Land
p56
(dp57
g24
I3
sg17
I1
sg25
(isplendid.classes
Wallet
p58
(dp59
g28
g29
((dp60
g45
I4
sg46
I4
stp61
Rp62
sbsg36
Nsg37
g38
sg39
I4
sba(isplendid.classes
Land
p63
(dp64
g24
I3
sg17
I1
sg25
(isplendid.classes
Wallet
p65
(dp66
g28
g29
((dp67
g32
I4
sg46
I4
stp68
Rp69
sbsg36
Nsg37
g38
sg39
I5
sba(isplendid.classes
Land
p70
(dp71
g24
I3
sg17
I1
sg25
(isplendid.classes
Wallet
p72
(dp73
g28
g29
((dp74
g45
I4
sg31
I4
stp75
Rp76
sbsg36
Nsg37
g38
sg39
I6
sba(isplendid.classes
Land
p77
(dp78
g24
I3
sg17
I1
sg25
(isplendid.classes
Wallet
p79
(dp80
g28
g29
((dp81
g31
I4
sg33
I4
stp82
Rp83
sbsg36
Nsg37
g38
sg39
I7
sba(isplendid.classes
Land
p84
(dp85
g24
I3
sg17
I1
sg25
(isplendid.classes
Wallet
p86
(dp87
g28
g29
((dp88
g32
I3
sg33
I3
sg46
I3
stp89
Rp90
sbsg36
Nsg37
g38
sg39
I8
sba(isplendid.classes
Land
p91
(dp92
g24
I3
sg17
I1
sg25
(isplendid.classes
Wallet
p93
(dp94
g28
g29
((dp95
g45
I3
sg31
I3
sg46
I3
stp96
Rp97
sbsg36
Nsg37
g38
sg39
I9
sba(isplendid.classes
Land
p98
(dp99
g24
I3
sg17
I1
sg25
(isplendid.classes
Wallet
p100
(dp101
g28
g29
((dp102
g32
I4
sg33
I4
stp103
Rp104
sbsg36
Nsg37
g38
sg39
I10
sbasS'_max_on_table'
p105
I4
sS'elsewhere'
p106
(lp107
sbsS'cmd_dict'
p108
(dp109
S'Bank'
p110
(dp111
S'check_neg'
p112
I01
sS'check_draw'
p113
I01
sS'check_can_draw2'
p114
I01
sssS'bank'
p115
(isplendid.classes
Bank
p116
(dp117
g28
g29
((dp118
S'A'
p119
I5
sg31
I5
sg33
I5
sg46
I5
sg45
I5
sg32
I5
stp120
Rp121
sbsS'decks'
p122
(lp123
(isplendid.classes
LandDeck
p124
(dp125
g17
I1
sg18
(lp126
sg20
(lp127
(isplendid.classes
Land
p128
(dp129
g24
I0
sg17
I1
sg25
(isplendid.classes
Wallet
p130
(dp131
g28
g29
((dp132
g32
I3
stp133
Rp134
sbsg36
Nsg37
g33
sg39
I1
sba(isplendid.classes
Land
p135
(dp136
g24
I0
sg17
I1
sg25
(isplendid.classes
Wallet
p137
(dp138
g28
g29
((dp139
g45
I2
sg31
I1
stp140
Rp141
sbsg36
Nsg37
g33
sg39
I2
sba(isplendid.classes
Land
p142
(dp143
g24
I0
sg17
I1
sg25
(isplendid.classes
Wallet
p144
(dp145
g28
g29
((dp146
g45
I1
sg31
I1
sg32
I1
sg46
I1
stp147
Rp148
sbsg36
Nsg37
g33
sg39
I3
sba(isplendid.classes
Land
p149
(dp150
g24
I0
sg17
I1
sg25
(isplendid.classes
Wallet
p151
(dp152
g28
g29
((dp153
g31
I2
sg32
I2
stp154
Rp155
sbsg36
Nsg37
g33
sg39
I4
sba(isplendid.classes
Land
p156
(dp157
g24
I1
sg17
I1
sg25
(isplendid.classes
Wallet
p158
(dp159
g28
g29
((dp160
g46
I4
stp161
Rp162
sbsg36
Nsg37
g33
sg39
I5
sba(isplendid.classes
Land
p163
(dp164
g24
I0
sg17
I1
sg25
(isplendid.classes
Wallet
p165
(dp166
g28
g29
((dp167
g45
I1
sg31
I1
sg32
I1
sg46
I2
stp168
Rp169
sbsg36
Nsg37
g33
sg39
I6
sba(isplendid.classes
Land
p170
(dp171
g24
I0
sg17
I1
sg25
(isplendid.classes
Wallet
p172
(dp173
g28
g29
((dp174
g31
I1
sg32
I2
sg46
I2
stp175
Rp176
sbsg36
Nsg37
g33
sg39
I7
sba(isplendid.classes
Land
p177
(dp178
g24
I0
sg17
I1
sg25
(isplendid.classes
Wallet
p179
(dp180
g28
g29
((dp181
g31
I1
sg32
I1
sg33
I3
stp182
Rp183
sbsg36
Nsg37
g33
sg39
I8
sba(isplendid.classes
Land
p184
(dp185
g24
I0
sg17
I1
sg25
(isplendid.classes
Wallet
p186
(dp187
g28
g29
((dp188
g31
I2
sg33
I1
stp189
Rp190
sbsg36
Nsg37
g32
sg39
I9
sba(isplendid.classes
Land
p191
(dp192
g24
I0
sg17
I1
sg25
(isplendid.classes
Wallet
p193
(dp194
g28
g29
((dp195
g31
I3
stp196
Rp197
sbsg36
Nsg37
g32
sg39
I10
sba(isplendid.classes
Land
p198
(dp199
g24
I0
sg17
I1
sg25
(isplendid.classes
Wallet
p200
(dp201
g28
g29
((dp202
g45
I1
sg31
I1
sg33
I1
sg46
I1
stp203
Rp204
sbsg36
Nsg37
g32
sg39
I11
sba(isplendid.classes
Land
p205
(dp206
g24
I0
sg17
I1
sg25
(isplendid.classes
Wallet
p207
(dp208
g28
g29
((dp209
g31
I2
sg46
I2
stp210
Rp211
sbsg36
Nsg37
g32
sg39
I12
sba(isplendid.classes
Land
p212
(dp213
g24
I1
sg17
I1
sg25
(isplendid.classes
Wallet
p214
(dp215
g28
g29
((dp216
g45
I4
stp217
Rp218
sbsg36
Nsg37
g32
sg39
I13
sba(isplendid.classes
Land
p219
(dp220
g24
I0
sg17
I1
sg25
(isplendid.classes
Wallet
p221
(dp222
g28
g29
((dp223
g45
I2
sg31
I1
sg33
I1
sg46
I1
stp224
Rp225
sbsg36
Nsg37
g32
sg39
I14
sba(isplendid.classes
Land
p226
(dp227
g24
I0
sg17
I1
sg25
(isplendid.classes
Wallet
p228
(dp229
g28
g29
((dp230
g45
I2
sg33
I1
sg46
I2
stp231
Rp232
sbsg36
Nsg37
g32
sg39
I15
sba(isplendid.classes
Land
p233
(dp234
g24
I0
sg17
I1
sg25
(isplendid.classes
Wallet
p235
(dp236
g28
g29
((dp237
g45
I1
sg32
I1
sg46
I3
stp238
Rp239
sbsg36
Nsg37
g32
sg39
I16
sba(isplendid.classes
Land
p240
(dp241
g24
I0
sg17
I1
sg25
(isplendid.classes
Wallet
p242
(dp243
g28
g29
((dp244
g32
I1
sg33
I2
stp245
Rp246
sbsg36
Nsg37
g46
sg39
I17
sba(isplendid.classes
Land
p247
(dp248
g24
I0
sg17
I1
sg25
(isplendid.classes
Wallet
p249
(dp250
g28
g29
((dp251
g45
I3
stp252
Rp253
sbsg36
Nsg37
g46
sg39
I18
sba(isplendid.classes
Land
p254
(dp255
g24
I0
sg17
I1
sg25
(isplendid.classes
Wallet
p256
(dp257
g28
g29
((dp258
g45
I1
sg31
I1
sg32
I1
sg33
I1
stp259
Rp260
sbsg36
Nsg37
g46
sg39
I19
sba(isplendid.classes
Land
p261
(dp262
g24
I0
sg17
I1
sg25
(isplendid.classes
Wallet
p263
(dp264
g28
g29
((dp265
g45
I2
sg32
I2
stp266
Rp267
sbsg36
Nsg37
g46
sg39
I20
sba(isplendid.classes
Land
p268
(dp269
g24
I1
sg17
I1
sg25
(isplendid.classes
Wallet
p270
(dp271
g28
g29
((dp272
g31
I4
stp273
Rp274
sbsg36
Nsg37
g46
sg39
I21
sba(isplendid.classes
Land
p275
(dp276
g24
I0
sg17
I1
sg25
(isplendid.classes
Wallet
p277
(dp278
g28
g29
((dp279
g45
I1
sg31
I2
sg32
I1
sg33
I1
stp280
Rp281
sbsg36
Nsg37
g46
sg39
I22
sba(isplendid.classes
Land
p282
(dp283
g24
I0
sg17
I1
sg25
(isplendid.classes
Wallet
p284
(dp285
g28
g29
((dp286
g45
I2
sg31
I2
sg32
I1
stp287
Rp288
sbsg36
Nsg37
g46
sg39
I23
sba(isplendid.classes
Land
p289
(dp290
g24
I0
sg17
I1
sg25
(isplendid.classes
Wallet
p291
(dp292
g28
g29
((dp293
g32
I3
sg33
I1
sg46
I1
stp294
Rp295
sbsg36
Nsg37
g46
sg39
I24
sba(isplendid.classes
Land
p296
(dp297
g24
I0
sg17
I1
sg25
(isplendid.classes
Wallet
p298
(dp299
g28
g29
((dp300
g32
I2
sg46
I1
stp301
Rp302
sbsg36
Nsg37
g45
sg39
I25
sba(isplendid.classes
Land
p303
(dp304
g24
I0
sg17
I1
sg25
(isplendid.classes
Wallet
p305
(dp306
g28
g29
((dp307
g33
I3
stp308
Rp309
sbsg36
Nsg37
g45
sg39
I26
sba(isplendid.classes
Land
p310
(dp311
g24
I0
sg17
I1
sg25
(isplendid.classes
Wallet
p312
(dp313
g28
g29
((dp314
g31
I1
sg32
I1
sg33
I1
sg46
I1
stp315
Rp316
sbsg36
Nsg37
g45
sg39
I27
sba(isplendid.classes
Land
p317
(dp318
g24
I0
sg17
I1
sg25
(isplendid.classes
Wallet
p319
(dp320
g28
g29
((dp321
g45
I2
sg33
I2
stp322
Rp323
sbsg36
Nsg37
g45
sg39
I28
sba(isplendid.classes
Land
p324
(dp325
g24
I1
sg17
I1
sg25
(isplendid.classes
Wallet
p326
(dp327
g28
g29
((dp328
g33
I4
stp329
Rp330
sbsg36
Nsg37
g45
sg39
I29
sba(isplendid.classes
Land
p331
(dp332
g24
I0
sg17
I1
sg25
(isplendid.classes
Wallet
p333
(dp334
g28
g29
((dp335
g31
I1
sg32
I1
sg33
I2
sg46
I1
stp336
Rp337
sbsg36
Nsg37
g45
sg39
I30
sba(isplendid.classes
Land
p338
(dp339
g24
I0
sg17
I1
sg25
(isplendid.classes
Wallet
p340
(dp341
g28
g29
((dp342
g31
I2
sg33
I2
sg46
I1
stp343
Rp344
sbsg36
Nsg37
g45
sg39
I31
sba(isplendid.classes
Land
p345
(dp346
g24
I0
sg17
I1
sg25
(isplendid.classes
Wallet
p347
(dp348
g28
g29
((dp349
g45
I1
sg31
I3
sg33
I1
stp350
Rp351
sbsg36
Nsg37
g45
sg39
I32
sba(isplendid.classes
Land
p352
(dp353
g24
I0
sg17
I1
sg25
(isplendid.classes
Wallet
p354
(dp355
g28
g29
((dp356
g45
I1
sg46
I2
stp357
Rp358
sbsg36
Nsg37
g31
sg39
I33
sba(isplendid.classes
Land
p359
(dp360
g24
I0
sg17
I1
sg25
(isplendid.classes
Wallet
p361
(dp362
g28
g29
((dp363
g46
I3
stp364
Rp365
sbsg36
Nsg37
g31
sg39
I34
sba(isplendid.classes
Land
p366
(dp367
g24
I0
sg17
I1
sg25
(isplendid.classes
Wallet
p368
(dp369
g28
g29
((dp370
g45
I1
sg32
I1
sg33
I1
sg46
I1
stp371
Rp372
sbsg36
Nsg37
g31
sg39
I35
sba(isplendid.classes
Land
p373
(dp374
g24
I0
sg17
I1
sg25
(isplendid.classes
Wallet
p375
(dp376
g28
g29
((dp377
g33
I2
sg46
I2
stp378
Rp379
sbsg36
Nsg37
g31
sg39
I36
sba(isplendid.classes
Land
p380
(dp381
g24
I1
sg17
I1
sg25
(isplendid.classes
Wallet
p382
(dp383
g28
g29
((dp384
g32
I4
stp385
Rp386
sbsg36
Nsg37
g31
sg39
I37
sba(isplendid.classes
Land
p387
(dp388
g24
I0
sg17
I1
sg25
(isplendid.classes
Wallet
p389
(dp390
g28
g29
((dp391
g45
I1
sg32
I2
sg33
I1
sg46
I1
stp392
Rp393
sbsg36
Nsg37
g31
sg39
I38
sba(isplendid.classes
Land
p394
(dp395
g24
I0
sg17
I1
sg25
(isplendid.classes
Wallet
p396
(dp397
g28
g29
((dp398
g45
I1
sg32
I2
sg33
I2
stp399
Rp400
sbsg36
Nsg37
g31
sg39
I39
sba(isplendid.classes
Land
p401
(dp402
g24
I0
sg17
I1
sg25
(isplendid.classes
Wallet
p403
(dp404
g28
g29
((dp405
g45
I3
sg31
I1
sg46
I1
stp406
Rp407
sbsg36
Nsg37
g31
sg39
I40
sbasg105
I4
sg106
(lp408
sba(isplendid.classes
LandDeck
p409
(dp410
g17
I2
sg18
(lp411
sg20
(lp412
(isplendid.classes
Land
p413
(dp414
g24
I2
sg17
I2
sg25
(isplendid.classes
Wallet
p415
(dp416
g28
g29
((dp417
g45
I5
stp418
Rp419
sbsg36
Nsg37
g33
sg39
I41
sba(isplendid.classes
Land
p420
(dp421
g24
I3
sg17
I2
sg25
(isplendid.classes
Wallet
p422
(dp423
g28
g29
((dp424
g33
I6
stp425
Rp426
sbsg36
Nsg37
g33
sg39
I42
sba(isplendid.classes
Land
p427
(dp428
g24
I1
sg17
I2
sg25
(isplendid.classes
Wallet
p429
(dp430
g28
g29
((dp431
g45
I2
sg31
I2
sg46
I3
stp432
Rp433
sbsg36
Nsg37
g33
sg39
I43
sba(isplendid.classes
Land
p434
(dp435
g24
I2
sg17
I2
sg25
(isplendid.classes
Wallet
p436
(dp437
g28
g29
((dp438
g45
I4
sg31
I2
sg46
I1
stp439
Rp440
sbsg36
Nsg37
g33
sg39
I44
sba(isplendid.classes
Land
p441
(dp442
g24
I1
sg17
I2
sg25
(isplendid.classes
Wallet
p443
(dp444
g28
g29
((dp445
g45
I3
sg32
I3
sg33
I2
stp446
Rp447
sbsg36
Nsg37
g33
sg39
I45
sba(isplendid.classes
Land
p448
(dp449
g24
I2
sg17
I2
sg25
(isplendid.classes
Wallet
p450
(dp451
g28
g29
((dp452
g45
I5
sg31
I3
stp453
Rp454
sbsg36
Nsg37
g33
sg39
I46
sba(isplendid.classes
Land
p455
(dp456
g24
I2
sg17
I2
sg25
(isplendid.classes
Wallet
p457
(dp458
g28
g29
((dp459
g32
I5
stp460
Rp461
sbsg36
Nsg37
g32
sg39
I47
sba(isplendid.classes
Land
p462
(dp463
g24
I3
sg17
I2
sg25
(isplendid.classes
Wallet
p464
(dp465
g28
g29
((dp466
g32
I6
stp467
Rp468
sbsg36
Nsg37
g32
sg39
I48
sba(isplendid.classes
Land
p469
(dp470
g24
I1
sg17
I2
sg25
(isplendid.classes
Wallet
p471
(dp472
g28
g29
((dp473
g45
I3
sg32
I2
sg46
I2
stp474
Rp475
sbsg36
Nsg37
g32
sg39
I49
sba(isplendid.classes
Land
p476
(dp477
g24
I2
sg17
I2
sg25
(isplendid.classes
Wallet
p478
(dp479
g28
g29
((dp480
g45
I1
sg31
I4
sg33
I2
stp481
Rp482
sbsg36
Nsg37
g32
sg39
I50
sba(isplendid.classes
Land
p483
(dp484
g24
I1
sg17
I2
sg25
(isplendid.classes
Wallet
p485
(dp486
g28
g29
((dp487
g31
I3
sg32
I2
sg46
I3
stp488
Rp489
sbsg36
Nsg37
g32
sg39
I51
sba(isplendid.classes
Land
p490
(dp491
g24
I2
sg17
I2
sg25
(isplendid.classes
Wallet
p492
(dp493
g28
g29
((dp494
g32
I3
sg33
I5
stp495
Rp496
sbsg36
Nsg37
g32
sg39
I52
sba(isplendid.classes
Land
p497
(dp498
g24
I2
sg17
I2
sg25
(isplendid.classes
Wallet
p499
(dp500
g28
g29
((dp501
g46
I5
stp502
Rp503
sbsg36
Nsg37
g46
sg39
I53
sba(isplendid.classes
Land
p504
(dp505
g24
I3
sg17
I2
sg25
(isplendid.classes
Wallet
p506
(dp507
g28
g29
((dp508
g46
I6
stp509
Rp510
sbsg36
Nsg37
g46
sg39
I54
sba(isplendid.classes
Land
p511
(dp512
g24
I1
sg17
I2
sg25
(isplendid.classes
Wallet
p513
(dp514
g28
g29
((dp515
g31
I2
sg32
I3
sg33
I2
stp516
Rp517
sbsg36
Nsg37
g46
sg39
I55
sba(isplendid.classes
Land
p518
(dp519
g24
I1
sg17
I2
sg25
(isplendid.classes
Wallet
p520
(dp521
g28
g29
((dp522
g45
I3
sg33
I3
sg46
I2
stp523
Rp524
sbsg36
Nsg37
g46
sg39
I56
sba(isplendid.classes
Land
p525
(dp526
g24
I2
sg17
I2
sg25
(isplendid.classes
Wallet
p527
(dp528
g28
g29
((dp529
g31
I1
sg32
I2
sg33
I4
stp530
Rp531
sbsg36
Nsg37
g46
sg39
I57
sba(isplendid.classes
Land
p532
(dp533
g24
I2
sg17
I2
sg25
(isplendid.classes
Wallet
p534
(dp535
g28
g29
((dp536
g32
I5
sg46
I3
stp537
Rp538
sbsg36
Nsg37
g46
sg39
I58
sba(isplendid.classes
Land
p539
(dp540
g24
I2
sg17
I2
sg25
(isplendid.classes
Wallet
p541
(dp542
g28
g29
((dp543
g31
I5
stp544
Rp545
sbsg36
Nsg37
g45
sg39
I59
sba(isplendid.classes
Land
p546
(dp547
g24
I3
sg17
I2
sg25
(isplendid.classes
Wallet
p548
(dp549
g28
g29
((dp550
g45
I6
stp551
Rp552
sbsg36
Nsg37
g45
sg39
I60
sba(isplendid.classes
Land
p553
(dp554
g24
I1
sg17
I2
sg25
(isplendid.classes
Wallet
p555
(dp556
g28
g29
((dp557
g45
I2
sg31
I3
sg33
I2
stp558
Rp559
sbsg36
Nsg37
g45
sg39
I61
sba(isplendid.classes
Land
p560
(dp561
g24
I2
sg17
I2
sg25
(isplendid.classes
Wallet
p562
(dp563
g28
g29
((dp564
g32
I4
sg33
I1
sg46
I2
stp565
Rp566
sbsg36
Nsg37
g45
sg39
I62
sba(isplendid.classes
Land
p567
(dp568
g24
I1
sg17
I2
sg25
(isplendid.classes
Wallet
p569
(dp570
g28
g29
((dp571
g45
I2
sg31
I3
sg32
I3
stp572
Rp573
sbsg36
Nsg37
g45
sg39
I63
sba(isplendid.classes
Land
p574
(dp575
g24
I2
sg17
I2
sg25
(isplendid.classes
Wallet
p576
(dp577
g28
g29
((dp578
g31
I5
sg33
I3
stp579
Rp580
sbsg36
Nsg37
g45
sg39
I64
sba(isplendid.classes
Land
p581
(dp582
g24
I2
sg17
I2
sg25
(isplendid.classes
Wallet
p583
(dp584
g28
g29
((dp585
g33
I5
stp586
Rp587
sbsg36
Nsg37
g31
sg39
I65
sba(isplendid.classes
Land
p588
(dp589
g24
I3
sg17
I2
sg25
(isplendid.classes
Wallet
p590
(dp591
g28
g29
((dp592
g31
I6
stp593
Rp594
sbsg36
Nsg37
g31
sg39
I66
sba(isplendid.classes
Land
p595
(dp596
g24
I1
sg17
I2
sg25
(isplendid.classes
Wallet
p597
(dp598
g28
g29
((dp599
g32
I2
sg33
I3
sg46
I2
stp600
Rp601
sbsg36
Nsg37
g31
sg39
I67
sba(isplendid.classes
Land
p602
(dp603
g24
I2
sg17
I2
sg25
(isplendid.classes
Wallet
p604
(dp605
g28
g29
((dp606
g45
I2
sg32
I1
sg46
I4
stp607
Rp608
sbsg36
Nsg37
g31
sg39
I68
sba(isplendid.classes
Land
p609
(dp610
g24
I1
sg17
I2
sg25
(isplendid.classes
Wallet
p611
(dp612
g28
g29
((dp613
g31
I2
sg33
I3
sg46
I3
stp614
Rp615
sbsg36
Nsg37
g31
sg39
I69
sba(isplendid.classes
Land
p616
(dp617
g24
I2
sg17
I2
sg25
(isplendid.classes
Wallet
p618
(dp619
g28
g29
((dp620
g45
I3
sg46
I5
stp621
Rp622
sbsg36
Nsg37
g31
sg39
I70
sbasg105
I4
sg106
(lp623
sba(isplendid.classes
LandDeck
p624
(dp625
g17
I3
sg18
(lp626
sg20
(lp627
(isplendid.classes
Land
p628
(dp629
g24
I4
sg17
I3
sg25
(isplendid.classes
Wallet
p630
(dp631
g28
g29
((dp632
g31
I7
stp633
Rp634
sbsg36
Nsg37
g33
sg39
I71
sba(isplendid.classes
Land
p635
(dp636
g24
I5
sg17
I3
sg25
(isplendid.classes
Wallet
p637
(dp638
g28
g29
((dp639
g31
I7
sg33
I3
stp640
Rp641
sbsg36
Nsg37
g33
sg39
I72
sba(isplendid.classes
Land
p642
(dp643
g24
I4
sg17
I3
sg25
(isplendid.classes
Wallet
p644
(dp645
g28
g29
((dp646
g45
I3
sg31
I6
sg33
I3
stp647
Rp648
sbsg36
Nsg37
g33
sg39
I73
sba(isplendid.classes
Land
p649
(dp650
g24
I3
sg17
I3
sg25
(isplendid.classes
Wallet
p651
(dp652
g28
g29
((dp653
g45
I5
sg31
I3
sg32
I3
sg46
I3
stp654
Rp655
sbsg36
Nsg37
g33
sg39
I74
sba(isplendid.classes
Land
p656
(dp657
g24
I4
sg17
I3
sg25
(isplendid.classes
Wallet
p658
(dp659
g28
g29
((dp660
g33
I7
stp661
Rp662
sbsg36
Nsg37
g32
sg39
I75
sba(isplendid.classes
Land
p663
(dp664
g24
I5
sg17
I3
sg25
(isplendid.classes
Wallet
p665
(dp666
g28
g29
((dp667
g32
I3
sg33
I7
stp668
Rp669
sbsg36
Nsg37
g32
sg39
I76
sba(isplendid.classes
Land
p670
(dp671
g24
I4
sg17
I3
sg25
(isplendid.classes
Wallet
p672
(dp673
g28
g29
((dp674
g31
I3
sg32
I3
sg33
I6
stp675
Rp676
sbsg36
Nsg37
g32
sg39
I77
sba(isplendid.classes
Land
p677
(dp678
g24
I3
sg17
I3
sg25
(isplendid.classes
Wallet
p679
(dp680
g28
g29
((dp681
g45
I3
sg31
I5
sg33
I3
sg46
I3
stp682
Rp683
sbsg36
Nsg37
g32
sg39
I78
sba(isplendid.classes
Land
p684
(dp685
g24
I4
sg17
I3
sg25
(isplendid.classes
Wallet
p686
(dp687
g28
g29
((dp688
g32
I7
stp689
Rp690
sbsg36
Nsg37
g46
sg39
I79
sba(isplendid.classes
Land
p691
(dp692
g24
I5
sg17
I3
sg25
(isplendid.classes
Wallet
p693
(dp694
g28
g29
((dp695
g32
I7
sg46
I3
stp696
Rp697
sbsg36
Nsg37
g46
sg39
I80
sba(isplendid.classes
Land
p698
(dp699
g24
I4
sg17
I3
sg25
(isplendid.classes
Wallet
p700
(dp701
g28
g29
((dp702
g32
I6
sg33
I3
sg46
I3
stp703
Rp704
sbsg36
Nsg37
g46
sg39
I81
sba(isplendid.classes
Land
p705
(dp706
g24
I3
sg17
I3
sg25
(isplendid.classes
Wallet
p707
(dp708
g28
g29
((dp709
g45
I3
sg31
I3
sg32
I3
sg33
I5
stp710
Rp711
sbsg36
Nsg37
g46
sg39
I82
sba(isplendid.classes
Land
p712
(dp713
g24
I4
sg17
I3
sg25
(isplendid.classes
Wallet
p714
(dp715
g28
g29
((dp716
g46
I7
stp717
Rp718
sbsg36
Nsg37
g45
sg39
I83
sba(isplendid.classes
Land
p719
(dp720
g24
I5
sg17
I3
sg25
(isplendid.classes
Wallet
p721
(dp722
g28
g29
((dp723
g45
I3
sg46
I7
stp724
Rp725
sbsg36
Nsg37
g45
sg39
I84
sba(isplendid.classes
Land
p726
(dp727
g24
I4
sg17
I3
sg25
(isplendid.classes
Wallet
p728
(dp729
g28
g29
((dp730
g45
I3
sg32
I3
sg46
I6
stp731
Rp732
sbsg36
Nsg37
g45
sg39
I85
sba(isplendid.classes
Land
p733
(dp734
g24
I3
sg17
I3
sg25
(isplendid.classes
Wallet
p735
(dp736
g28
g29
((dp737
g31
I3
sg32
I5
sg33
I3
sg46
I3
stp738
Rp739
sbsg36
Nsg37
g45
sg39
I86
sba(isplendid.classes
Land
p740
(dp741
g24
I4
sg17
I3
sg25
(isplendid.classes
Wallet
p742
(dp743
g28
g29
((dp744
g45
I7
stp745
Rp746
sbsg36
Nsg37
g31
sg39
I87
sba(isplendid.classes
Land
p747
(dp748
g24
I5
sg17
I3
sg25
(isplendid.classes
Wallet
p749
(dp750
g28
g29
((dp751
g45
I7
sg31
I3
stp752
Rp753
sbsg36
Nsg37
g31
sg39
I88
sba(isplendid.classes
Land
p754
(dp755
g24
I4
sg17
I3
sg25
(isplendid.classes
Wallet
p756
(dp757
g28
g29
((dp758
g45
I6
sg31
I3
sg46
I3
stp759
Rp760
sbsg36
Nsg37
g31
sg39
I89
sba(isplendid.classes
Land
p761
(dp762
g24
I3
sg17
I3
sg25
(isplendid.classes
Wallet
p763
(dp764
g28
g29
((dp765
g45
I3
sg32
I3
sg33
I3
sg46
I5
stp766
Rp767
sbsg36
Nsg37
g31
sg39
I90
sbasg105
I4
sg106
(lp768
sbasb.