(isplendid.classes
Game
p0
(dp1
S'_stages'
p2
((lp3
S'do_draw'
p4
aS'do_reserve'
p5
aS'do_buy'
p6
atp7
sS'_hist'
p8
(dp9
sS'point_goal'
p10
I15
sS'turn'
p11
I0
sS'cmd_dict'
p12
(dp13
S'Bank'
p14
(dp15
S'check_neg'
p16
I01
sS'check_draw'
p17
I01
sS'check_can_draw2'
p18
I01
sssS'bank'
p19
(isplendid.classes
Bank
p20
(dp21
S'gems'
p22
ccollections
Counter
p23
((dp24
S'A'
p25
I5
sS'B'
p26
I5
sS'W'
p27
I5
sS'g'
p28
I5
sS'r'
p29
I5
sS'b'
p30
I5
stp31
Rp32
sbsS'decks'
p33
(lp34
(isplendid.classes
LandDeck
p35
(dp36
S'tier'
p37
I1
sS'table'
p38
(lp39
(isplendid.classes
Land
p40
(dp41
S'owner'
p42
NsS'pv'
p43
I0
sS'cost'
p44
(isplendid.classes
Wallet
p45
(dp46
g22
g23
((dp47
g29
I3
sg26
I1
sg28
I1
stp48
Rp49
sbsS'type'
p50
g26
sS'id'
p51
I40
sba(isplendid.classes
Land
p52
(dp53
g42
Nsg43
I0
sg44
(isplendid.classes
Wallet
p54
(dp55
g22
g23
((dp56
g29
I1
sg30
I2
sg27
I2
stp57
Rp58
sbsg50
g26
sg51
I39
sba(isplendid.classes
Land
p59
(dp60
g42
Nsg43
I0
sg44
(isplendid.classes
Wallet
p61
(dp62
g22
g23
((dp63
g29
I1
sg30
I2
sg27
I1
sg28
I1
stp64
Rp65
sbsg50
g26
sg51
I38
sba(isplendid.classes
Land
p66
(dp67
g42
Nsg43
I1
sg44
(isplendid.classes
Wallet
p68
(dp69
g22
g23
((dp70
g30
I4
stp71
Rp72
sbsg50
g26
sg51
I37
sbasS'deck'
p73
(lp74
(isplendid.classes
Land
p75
(dp76
g42
Nsg43
I0
sg44
(isplendid.classes
Wallet
p77
(dp78
g22
g23
((dp79
g30
I3
stp80
Rp81
sbsg50
g27
sg51
I1
sba(isplendid.classes
Land
p82
(dp83
g42
Nsg43
I0
sg44
(isplendid.classes
Wallet
p84
(dp85
g22
g23
((dp86
g29
I2
sg26
I1
stp87
Rp88
sbsg50
g27
sg51
I2
sba(isplendid.classes
Land
p89
(dp90
g42
Nsg43
I0
sg44
(isplendid.classes
Wallet
p91
(dp92
g22
g23
((dp93
g29
I1
sg26
I1
sg30
I1
sg28
I1
stp94
Rp95
sbsg50
g27
sg51
I3
sba(isplendid.classes
Land
p96
(dp97
g42
Nsg43
I0
sg44
(isplendid.classes
Wallet
p98
(dp99
g22
g23
((dp100
g26
I2
sg30
I2
stp101
Rp102
sbsg50
g27
sg51
I4
sba(isplendid.classes
Land
p103
(dp104
g42
Nsg43
I1
sg44
(isplendid.classes
Wallet
p105
(dp106
g22
g23
((dp107
g28
I4
stp108
Rp109
sbsg50
g27
sg51
I5
sba(isplendid.classes
Land
p110
(dp111
g42
Nsg43
I0
sg44
(isplendid.classes
Wallet
p112
(dp113
g22
g23
((dp114
g29
I1
sg26
I1
sg30
I1
sg28
I2
stp115
Rp116
sbsg50
g27
sg51
I6
sba(isplendid.classes
Land
p117
(dp118
g42
Nsg43
I0
sg44
(isplendid.classes
Wallet
p119
(dp120
g22
g23
((dp121
g26
I1
sg30
I2
sg28
I2
stp122
Rp123
sbsg50
g27
sg51
I7
sba(isplendid.classes
Land
p124
(dp125
g42
Nsg43
I0
sg44
(isplendid.classes
Wallet
p126
(dp127
g22
g23
((dp128
g26
I1
sg30
I1
sg27
I3
stp129
Rp130
sbsg50
g27
sg51
I8
sba(isplendid.classes
Land
p131
(dp132
g42
Nsg43
I0
sg44
(isplendid.classes
Wallet
p133
(dp134
g22
g23
((dp135
g26
I2
sg27
I1
stp136
Rp137
sbsg50
g30
sg51
I9
sba(isplendid.classes
Land
p138
(dp139
g42
Nsg43
I0
sg44
(isplendid.classes
Wallet
p140
(dp141
g22
g23
((dp142
g26
I3
stp143
Rp144
sbsg50
g30
sg51
I10
sba(isplendid.classes
Land
p145
(dp146
g42
Nsg43
I0
sg44
(isplendid.classes
Wallet
p147
(dp148
g22
g23
((dp149
g29
I1
sg26
I1
sg27
I1
sg28
I1
stp150
Rp151
sbsg50
g30
sg51
I11
sba(isplendid.classes
Land
p152
(dp153
g42
Nsg43
I0
sg44
(isplendid.classes
Wallet
p154
(dp155
g22
g23
((dp156
g26
I2
sg28
I2
stp157
Rp158
sbsg50
g30
sg51
I12
sba(isplendid.classes
Land
p159
(dp160
g42
Nsg43
I1
sg44
(isplendid.classes
Wallet
p161
(dp162
g22
g23
((dp163
g29
I4
stp164
Rp165
sbsg50
g30
sg51
I13
sba(isplendid.classes
Land
p166
(dp167
g42
Nsg43
I0
sg44
(isplendid.classes
Wallet
p168
(dp169
g22
g23
((dp170
g29
I2
sg26
I1
sg27
I1
sg28
I1
stp171
Rp172
sbsg50
g30
sg51
I14
sba(isplendid.classes
Land
p173
(dp174
g42
Nsg43
I0
sg44
(isplendid.classes
Wallet
p175
(dp176
g22
g23
((dp177
g29
I2
sg27
I1
sg28
I2
stp178
Rp179
sbsg50
g30
sg51
I15
sba(isplendid.classes
Land
p180
(dp181
g42
Nsg43
I0
sg44
(isplendid.classes
Wallet
p182
(dp183
g22
g23
((dp184
g29
I1
sg30
I1
sg28
I3
stp185
Rp186
sbsg50
g30
sg51
I16
sba(isplendid.classes
Land
p187
(dp188
g42
Nsg43
I0
sg44
(isplendid.classes
Wallet
p189
(dp190
g22
g23
((dp191
g30
I1
sg27
I2
stp192
Rp193
sbsg50
g28
sg51
I17
sba(isplendid.classes
Land
p194
(dp195
g42
Nsg43
I0
sg44
(isplendid.classes
Wallet
p196
(dp197
g22
g23
((dp198
g29
I3
stp199
Rp200
sbsg50
g28
sg51
I18
sba(isplendid.classes
Land
p201
(dp202
g42
Nsg43
I0
sg44
(isplendid.classes
Wallet
p203
(dp204
g22
g23
((dp205
g29
I1
sg26
I1
sg30
I1
sg27
I1
stp206
Rp207
sbsg50
g28
sg51
I19
sba(isplendid.classes
Land
p208
(dp209
g42
Nsg43
I0
sg44
(isplendid.classes
Wallet
p210
(dp211
g22
g23
((dp212
g29
I2
sg30
I2
stp213
Rp214
sbsg50
g28
sg51
I20
sba(isplendid.classes
Land
p215
(dp216
g42
Nsg43
I1
sg44
(isplendid.classes
Wallet
p217
(dp218
g22
g23
((dp219
g26
I4
stp220
Rp221
sbsg50
g28
sg51
I21
sba(isplendid.classes
Land
p222
(dp223
g42
Nsg43
I0
sg44
(isplendid.classes
Wallet
p224
(dp225
g22
g23
((dp226
g29
I1
sg26
I2
sg30
I1
sg27
I1
stp227
Rp228
sbsg50
g28
sg51
I22
sba(isplendid.classes
Land
p229
(dp230
g42
Nsg43
I0
sg44
(isplendid.classes
Wallet
p231
(dp232
g22
g23
((dp233
g29
I2
sg26
I2
sg30
I1
stp234
Rp235
sbsg50
g28
sg51
I23
sba(isplendid.classes
Land
p236
(dp237
g42
Nsg43
I0
sg44
(isplendid.classes
Wallet
p238
(dp239
g22
g23
((dp240
g30
I3
sg27
I1
sg28
I1
stp241
Rp242
sbsg50
g28
sg51
I24
sba(isplendid.classes
Land
p243
(dp244
g42
Nsg43
I0
sg44
(isplendid.classes
Wallet
p245
(dp246
g22
g23
((dp247
g30
I2
sg28
I1
stp248
Rp249
sbsg50
g29
sg51
I25
sba(isplendid.classes
Land
p250
(dp251
g42
Nsg43
I0
sg44
(isplendid.classes
Wallet
p252
(dp253
g22
g23
((dp254
g27
I3
stp255
Rp256
sbsg50
g29
sg51
I26
sba(isplendid.classes
Land
p257
(dp258
g42
Nsg43
I0
sg44
(isplendid.classes
Wallet
p259
(dp260
g22
g23
((dp261
g26
I1
sg30
I1
sg27
I1
sg28
I1
stp262
Rp263
sbsg50
g29
sg51
I27
sba(isplendid.classes
Land
p264
(dp265
g42
Nsg43
I0
sg44
(isplendid.classes
Wallet
p266
(dp267
g22
g23
((dp268
g29
I2
sg27
I2
stp269
Rp270
sbsg50
g29
sg51
I28
sba(isplendid.classes
Land
p271
(dp272
g42
Nsg43
I1
sg44
(isplendid.classes
Wallet
p273
(dp274
g22
g23
((dp275
g27
I4
stp276
Rp277
sbsg50
g29
sg51
I29
sba(isplendid.classes
Land
p278
(dp279
g42
Nsg43
I0
sg44
(isplendid.classes
Wallet
p280
(dp281
g22
g23
((dp282
g26
I1
sg30
I1
sg27
I2
sg28
I1
stp283
Rp284
sbsg50
g29
sg51
I30
sba(isplendid.classes
Land
p285
(dp286
g42
Nsg43
I0
sg44
(isplendid.classes
Wallet
p287
(dp288
g22
g23
((dp289
g26
I2
sg27
I2
sg28
I1
stp290
Rp291
sbsg50
g29
sg51
I31
sba(isplendid.classes
Land
p292
(dp293
g42
Nsg43
I0
sg44
(isplendid.classes
Wallet
p294
(dp295
g22
g23
((dp296
g29
I1
sg26
I3
sg27
I1
stp297
Rp298
sbsg50
g29
sg51
I32
sba(isplendid.classes
Land
p299
(dp300
g42
Nsg43
I0
sg44
(isplendid.classes
Wallet
p301
(dp302
g22
g23
((dp303
g29
I1
sg28
I2
stp304
Rp305
sbsg50
g26
sg51
I33
sba(isplendid.classes
Land
p306
(dp307
g42
Nsg43
I0
sg44
(isplendid.classes
Wallet
p308
(dp309
g22
g23
((dp310
g28
I3
stp311
Rp312
sbsg50
g26
sg51
I34
sba(isplendid.classes
Land
p313
(dp314
g42
Nsg43
I0
sg44
(isplendid.classes
Wallet
p315
(dp316
g22
g23
((dp317
g29
I1
sg30
I1
sg27
I1
sg28
I1
stp318
Rp319
sbsg50
g26
sg51
I35
sba(isplendid.classes
Land
p320
(dp321
g42
Nsg43
I0
sg44
(isplendid.classes
Wallet
p322
(dp323
g22
g23
((dp324
g27
I2
sg28
I2
stp325
Rp326
sbsg50
g26
sg51
I36
sbasS'_max_on_table'
p327
I4
sS'elsewhere'
p328
(lp329
sba(isplendid.classes
LandDeck
p330
(dp331
g37
I2
sg38
(lp332
(isplendid.classes
Land
p333
(dp334
g42
Nsg43
I2
sg44
(isplendid.classes
Wallet
p335
(dp336
g22
g23
((dp337
g29
I3
sg28
I5
stp338
Rp339
sbsg50
g26
sg51
I70
sba(isplendid.classes
Land
p340
(dp341
g42
Nsg43
I1
sg44
(isplendid.classes
Wallet
p342
(dp343
g22
g23
((dp344
g26
I2
sg27
I3
sg28
I3
stp345
Rp346
sbsg50
g26
sg51
I69
sba(isplendid.classes
Land
p347
(dp348
g42
Nsg43
I2
sg44
(isplendid.classes
Wallet
p349
(dp350
g22
g23
((dp351
g29
I2
sg30
I1
sg28
I4
stp352
Rp353
sbsg50
g26
sg51
I68
sba(isplendid.classes
Land
p354
(dp355
g42
Nsg43
I1
sg44
(isplendid.classes
Wallet
p356
(dp357
g22
g23
((dp358
g30
I2
sg27
I3
sg28
I2
stp359
Rp360
sbsg50
g26
sg51
I67
sbasg73
(lp361
(isplendid.classes
Land
p362
(dp363
g42
Nsg43
I2
sg44
(isplendid.classes
Wallet
p364
(dp365
g22
g23
((dp366
g29
I5
stp367
Rp368
sbsg50
g27
sg51
I41
sba(isplendid.classes
Land
p369
(dp370
g42
Nsg43
I3
sg44
(isplendid.classes
Wallet
p371
(dp372
g22
g23
((dp373
g27
I6
stp374
Rp375
sbsg50
g27
sg51
I42
sba(isplendid.classes
Land
p376
(dp377
g42
Nsg43
I1
sg44
(isplendid.classes
Wallet
p378
(dp379
g22
g23
((dp380
g29
I2
sg26
I2
sg28
I3
stp381
Rp382
sbsg50
g27
sg51
I43
sba(isplendid.classes
Land
p383
(dp384
g42
Nsg43
I2
sg44
(isplendid.classes
Wallet
p385
(dp386
g22
g23
((dp387
g29
I4
sg26
I2
sg28
I1
stp388
Rp389
sbsg50
g27
sg51
I44
sba(isplendid.classes
Land
p390
(dp391
g42
Nsg43
I1
sg44
(isplendid.classes
Wallet
p392
(dp393
g22
g23
((dp394
g29
I3
sg30
I3
sg27
I2
stp395
Rp396
sbsg50
g27
sg51
I45
sba(isplendid.classes
Land
p397
(dp398
g42
Nsg43
I2
sg44
(isplendid.classes
Wallet
p399
(dp400
g22
g23
((dp401
g29
I5
sg26
I3
stp402
Rp403
sbsg50
g27
sg51
I46
sba(isplendid.classes
Land
p404
(dp405
g42
Nsg43
I2
sg44
(isplendid.classes
Wallet
p406
(dp407
g22
g23
((dp408
g30
I5
stp409
Rp410
sbsg50
g30
sg51
I47
sba(isplendid.classes
Land
p411
(dp412
g42
Nsg43
I3
sg44
(isplendid.classes
Wallet
p413
(dp414
g22
g23
((dp415
g30
I6
stp416
Rp417
sbsg50
g30
sg51
I48
sba(isplendid.classes
Land
p418
(dp419
g42
Nsg43
I1
sg44
(isplendid.classes
Wallet
p420
(dp421
g22
g23
((dp422
g29
I3
sg30
I2
sg28
I2
stp423
Rp424
sbsg50
g30
sg51
I49
sba(isplendid.classes
Land
p425
(dp426
g42
Nsg43
I2
sg44
(isplendid.classes
Wallet
p427
(dp428
g22
g23
((dp429
g29
I1
sg26
I4
sg27
I2
stp430
Rp431
sbsg50
g30
sg51
I50
sba(isplendid.classes
Land
p432
(dp433
g42
Nsg43
I1
sg44
(isplendid.classes
Wallet
p434
(dp435
g22
g23
((dp436
g26
I3
sg30
I2
sg28
I3
stp437
Rp438
sbsg50
g30
sg51
I51
sba(isplendid.classes
Land
p439
(dp440
g42
Nsg43
I2
sg44
(isplendid.classes
Wallet
p441
(dp442
g22
g23
((dp443
g30
I3
sg27
I5
stp444
Rp445
sbsg50
g30
sg51
I52
sba(isplendid.classes
Land
p446
(dp447
g42
Nsg43
I2
sg44
(isplendid.classes
Wallet
p448
(dp449
g22
g23
((dp450
g28
I5
stp451
Rp452
sbsg50
g28
sg51
I53
sba(isplendid.classes
Land
p453
(dp454
g42
Nsg43
I3
sg44
(isplendid.classes
Wallet
p455
(dp456
g22
g23
((dp457
g28
I6
stp458
Rp459
sbsg50
g28
sg51
I54
sba(isplendid.classes
Land
p460
(dp461
g42
Nsg43
I1
sg44
(isplendid.classes
Wallet
p462
(dp463
g22
g23
((dp464
g26
I2
sg30
I3
sg27
I2
stp465
Rp466
sbsg50
g28
sg51
I55
sba(isplendid.classes
Land
p467
(dp468
g42
Nsg43
I1
sg44
(isplendid.classes
Wallet
p469
(dp470
g22
g23
((dp471
g29
I3
sg27
I3
sg28
I2
stp472
Rp473
sbsg50
g28
sg51
I56
sba(isplendid.classes
Land
p474
(dp475
g42
Nsg43
I2
sg44
(isplendid.classes
Wallet
p476
(dp477
g22
g23
((dp478
g26
I1
sg30
I2
sg27
I4
stp479
Rp480
sbsg50
g28
sg51
I57
sba(isplendid.classes
Land
p481
(dp482
g42
Nsg43
I2
sg44
(isplendid.classes
Wallet
p483
(dp484
g22
g23
((dp485
g30
I5
sg28
I3
stp486
Rp487
sbsg50
g28
sg51
I58
sba(isplendid.classes
Land
p488
(dp489
g42
Nsg43
I2
sg44
(isplendid.classes
Wallet
p490
(dp491
g22
g23
((dp492
g26
I5
stp493
Rp494
sbsg50
g29
sg51
I59
sba(isplendid.classes
Land
p495
(dp496
g42
Nsg43
I3
sg44
(isplendid.classes
Wallet
p497
(dp498
g22
g23
((dp499
g29
I6
stp500
Rp501
sbsg50
g29
sg51
I60
sba(isplendid.classes
Land
p502
(dp503
g42
Nsg43
I1
sg44
(isplendid.classes
Wallet
p504
(dp505
g22
g23
((dp506
g29
I2
sg26
I3
sg27
I2
stp507
Rp508
sbsg50
g29
sg51
I61
sba(isplendid.classes
Land
p509
(dp510
g42
Nsg43
I2
sg44
(isplendid.classes
Wallet
p511
(dp512
g22
g23
((dp513
g30
I4
sg27
I1
sg28
I2
stp514
Rp515
sbsg50
g29
sg51
I62
sba(isplendid.classes
Land
p516
(dp517
g42
Nsg43
I1
sg44
(isplendid.classes
Wallet
p518
(dp519
g22
g23
((dp520
g29
I2
sg26
I3
sg30
I3
stp521
Rp522
sbsg50
g29
sg51
I63
sba(isplendid.classes
Land
p523
(dp524
g42
Nsg43
I2
sg44
(isplendid.classes
Wallet
p525
(dp526
g22
g23
((dp527
g26
I5
sg27
I3
stp528
Rp529
sbsg50
g29
sg51
I64
sba(isplendid.classes
Land
p530
(dp531
g42
Nsg43
I2
sg44
(isplendid.classes
Wallet
p532
(dp533
g22
g23
((dp534
g27
I5
stp535
Rp536
sbsg50
g26
sg51
I65
sba(isplendid.classes
Land
p537
(dp538
g42
Nsg43
I3
sg44
(isplendid.classes
Wallet
p539
(dp540
g22
g23
((dp541
g26
I6
stp542
Rp543
sbsg50
g26
sg51
I66
sbasg327
I4
sg328
(lp544
sba(isplendid.classes
LandDeck
p545
(dp546
g37
I3
sg38
(lp547
(isplendid.classes
Land
p548
(dp549
g42
Nsg43
I3
sg44
(isplendid.classes
Wallet
p550
(dp551
g22
g23
((dp552
g29
I3
sg30
I3
sg27
I3
sg28
I5
stp553
Rp554
sbsg50
g26
sg51
I90
sba(isplendid.classes
Land
p555
(dp556
g42
Nsg43
I4
sg44
(isplendid.classes
Wallet
p557
(dp558
g22
g23
((dp559
g29
I6
sg26
I3
sg28
I3
stp560
Rp561
sbsg50
g26
sg51
I89
sba(isplendid.classes
Land
p562
(dp563
g42
Nsg43
I5
sg44
(isplendid.classes
Wallet
p564
(dp565
g22
g23
((dp566
g29
I7
sg26
I3
stp567
Rp568
sbsg50
g26
sg51
I88
sba(isplendid.classes
Land
p569
(dp570
g42
Nsg43
I4
sg44
(isplendid.classes
Wallet
p571
(dp572
g22
g23
((dp573
g29
I7
stp574
Rp575
sbsg50
g26
sg51
I87
sbasg73
(lp576
(isplendid.classes
Land
p577
(dp578
g42
Nsg43
I4
sg44
(isplendid.classes
Wallet
p579
(dp580
g22
g23
((dp581
g26
I7
stp582
Rp583
sbsg50
g27
sg51
I71
sba(isplendid.classes
Land
p584
(dp585
g42
Nsg43
I5
sg44
(isplendid.classes
Wallet
p586
(dp587
g22
g23
((dp588
g26
I7
sg27
I3
stp589
Rp590
sbsg50
g27
sg51
I72
sba(isplendid.classes
Land
p591
(dp592
g42
Nsg43
I4
sg44
(isplendid.classes
Wallet
p593
(dp594
g22
g23
((dp595
g29
I3
sg26
I6
sg27
I3
stp596
Rp597
sbsg50
g27
sg51
I73
sba(isplendid.classes
Land
p598
(dp599
g42
Nsg43
I3
sg44
(isplendid.classes
Wallet
p600
(dp601
g22
g23
((dp602
g29
I5
sg26
I3
sg30
I3
sg28
I3
stp603
Rp604
sbsg50
g27
sg51
I74
sba(isplendid.classes
Land
p605
(dp606
g42
Nsg43
I4
sg44
(isplendid.classes
Wallet
p607
(dp608
g22
g23
((dp609
g27
I7
stp610
Rp611
sbsg50
g30
sg51
I75
sba(isplendid.classes
Land
p612
(dp613
g42
Nsg43
I5
sg44
(isplendid.classes
Wallet
p614
(dp615
g22
g23
((dp616
g30
I3
sg27
I7
stp617
Rp618
sbsg50
g30
sg51
I76
sba(isplendid.classes
Land
p619
(dp620
g42
Nsg43
I4
sg44
(isplendid.classes
Wallet
p621
(dp622
g22
g23
((dp623
g26
I3
sg30
I3
sg27
I6
stp624
Rp625
sbsg50
g30
sg51
I77
sba(isplendid.classes
Land
p626
(dp627
g42
Nsg43
I3
sg44
(isplendid.classes
Wallet
p628
(dp629
g22
g23
((dp630
g29
I3
sg26
I5
sg27
I3
sg28
I3
stp631
Rp632
sbsg50
g30
sg51
I78
sba(isplendid.classes
Land
p633
(dp634
g42
Nsg43
I4
sg44
(isplendid.classes
Wallet
p635
(dp636
g22
g23
((dp637
g30
I7
stp638
Rp639
sbsg50
g28
sg51
I79
sba(isplendid.classes
Land
p640
(dp641
g42
Nsg43
I5
sg44
(isplendid.classes
Wallet
p642
(dp643
g22
g23
((dp644
g30
I7
sg28
I3
stp645
Rp646
sbsg50
g28
sg51
I80
sba(isplendid.classes
Land
p647
(dp648
g42
Nsg43
I4
sg44
(isplendid.classes
Wallet
p649
(dp650
g22
g23
((dp651
g30
I6
sg27
I3
sg28
I3
stp652
Rp653
sbsg50
g28
sg51
I81
sba(isplendid.classes
Land
p654
(dp655
g42
Nsg43
I3
sg44
(isplendid.classes
Wallet
p656
(dp657
g22
g23
((dp658
g29
I3
sg26
I3
sg30
I3
sg27
I5
stp659
Rp660
sbsg50
g28
sg51
I82
sba(isplendid.classes
Land
p661
(dp662
g42
Nsg43
I4
sg44
(isplendid.classes
Wallet
p663
(dp664
g22
g23
((dp665
g28
I7
stp666
Rp667
sbsg50
g29
sg51
I83
sba(isplendid.classes
Land
p668
(dp669
g42
Nsg43
I5
sg44
(isplendid.classes
Wallet
p670
(dp671
g22
g23
((dp672
g29
I3
sg28
I7
stp673
Rp674
sbsg50
g29
sg51
I84
sba(isplendid.classes
Land
p675
(dp676
g42
Nsg43
I4
sg44
(isplendid.classes
Wallet
p677
(dp678
g22
g23
((dp679
g29
I3
sg30
I3
sg28
I6
stp680
Rp681
sbsg50
g29
sg51
I85
sba(isplendid.classes
Land
p682
(dp683
g42
Nsg43
I3
sg44
(isplendid.classes
Wallet
p684
(dp685
g22
g23
((dp686
g26
I3
sg30
I5
sg27
I3
sg28
I3
stp687
Rp688
sbsg50
g29
sg51
I86
sbasg327
I4
sg328
(lp689
sbasb.